target datalayout = "e-m:e-p270:32:32-p271:32:32-p272:64:64-i64:64-i128:128-f80:128-n8:16:32:64-S128"
target triple = "x86_64-pc-linux-gnu"

%struct.b3QuantizedBvhNode = type { %struct.b3QuantizedBvhNodeData }
%struct.b3QuantizedBvhNodeData = type { [3 x i16], [3 x i16], i32 }
%class.b3Vector3 = type { %union.anon }
%union.anon = type { [4 x float] }
%class.b3BvhSubtreeInfo = type { %struct.b3BvhSubtreeInfoData }
%struct.b3BvhSubtreeInfoData = type { [3 x i16], [3 x i16], i32, i32, [3 x i32] }
%class.b3QuantizedBvh = type <{ ptr, [8 x i8], %class.b3Vector3, %class.b3Vector3, %class.b3Vector3, i32, i32, i8, [7 x i8], %class.b3AlignedObjectArray, %class.b3AlignedObjectArray, %class.b3AlignedObjectArray.0, %class.b3AlignedObjectArray.0, i32, [4 x i8], %class.b3AlignedObjectArray.2, i32, [4 x i8] }>
%class.b3AlignedObjectArray = type <{ [4 x i8], i32, i32, [4 x i8], ptr, i8, [7 x i8] }>
%class.b3AlignedObjectArray.0 = type <{ [4 x i8], i32, i32, [4 x i8], ptr, i8, [7 x i8] }>
%class.b3AlignedObjectArray.2 = type <{ [4 x i8], i32, i32, [4 x i8], ptr, i8, [7 x i8] }>

; Function Attrs: mustprogress nounwind uwtable
define linkonce_odr dso_local void @_ZN16b3BvhSubtreeInfo23setAabbFromQuantizeNodeERK18b3QuantizedBvhNode(ptr noundef nonnull align 16 dereferenceable(32) %0, ptr noundef nonnull align 16 dereferenceable(16) %1) #3 comdat align 2 {
  %3 = alloca ptr, align 8
  %4 = alloca ptr, align 8
  store ptr %0, ptr %3, align 8, !tbaa !36
  store ptr %1, ptr %4, align 8, !tbaa !51
  %5 = load ptr, ptr %3, align 8
  %6 = load ptr, ptr %4, align 8, !tbaa !51
  %7 = getelementptr inbounds nuw %struct.b3QuantizedBvhNodeData, ptr %6, i32 0, i32 0
  %8 = getelementptr inbounds [3 x i16], ptr %7, i64 0, i64 0
  %9 = load i16, ptr %8, align 16, !tbaa !73
  %10 = getelementptr inbounds nuw %struct.b3BvhSubtreeInfoData, ptr %5, i32 0, i32 0
  %11 = getelementptr inbounds [3 x i16], ptr %10, i64 0, i64 0
  store i16 %9, ptr %11, align 16, !tbaa !73
  %12 = load ptr, ptr %4, align 8, !tbaa !51
  %13 = getelementptr inbounds nuw %struct.b3QuantizedBvhNodeData, ptr %12, i32 0, i32 0
  %14 = getelementptr inbounds [3 x i16], ptr %13, i64 0, i64 1
  %15 = load i16, ptr %14, align 2, !tbaa !73
  %16 = getelementptr inbounds nuw %struct.b3BvhSubtreeInfoData, ptr %5, i32 0, i32 0
  %17 = getelementptr inbounds [3 x i16], ptr %16, i64 0, i64 1
  store i16 %15, ptr %17, align 2, !tbaa !73
  %18 = load ptr, ptr %4, align 8, !tbaa !51
  %19 = getelementptr inbounds nuw %struct.b3QuantizedBvhNodeData, ptr %18, i32 0, i32 0
  %20 = getelementptr inbounds [3 x i16], ptr %19, i64 0, i64 2
  %21 = load i16, ptr %20, align 4, !tbaa !73
  %22 = getelementptr inbounds nuw %struct.b3BvhSubtreeInfoData, ptr %5, i32 0, i32 0
  %23 = getelementptr inbounds [3 x i16], ptr %22, i64 0, i64 2
  store i16 %21, ptr %23, align 4, !tbaa !73
  %24 = load ptr, ptr %4, align 8, !tbaa !51
  %25 = getelementptr inbounds nuw %struct.b3QuantizedBvhNodeData, ptr %24, i32 0, i32 1
  %26 = getelementptr inbounds [3 x i16], ptr %25, i64 0, i64 0
  %27 = load i16, ptr %26, align 2, !tbaa !73
  %28 = getelementptr inbounds nuw %struct.b3BvhSubtreeInfoData, ptr %5, i32 0, i32 1
  %29 = getelementptr inbounds [3 x i16], ptr %28, i64 0, i64 0
  store i16 %27, ptr %29, align 2, !tbaa !73
  %30 = load ptr, ptr %4, align 8, !tbaa !51
  %31 = getelementptr inbounds nuw %struct.b3QuantizedBvhNodeData, ptr %30, i32 0, i32 1
  %32 = getelementptr inbounds [3 x i16], ptr %31, i64 0, i64 1
  %33 = load i16, ptr %32, align 2, !tbaa !73
  %34 = getelementptr inbounds nuw %struct.b3BvhSubtreeInfoData, ptr %5, i32 0, i32 1
  %35 = getelementptr inbounds [3 x i16], ptr %34, i64 0, i64 1
  store i16 %33, ptr %35, align 2, !tbaa !73
  %36 = load ptr, ptr %4, align 8, !tbaa !51
  %37 = getelementptr inbounds nuw %struct.b3QuantizedBvhNodeData, ptr %36, i32 0, i32 1
  %38 = getelementptr inbounds [3 x i16], ptr %37, i64 0, i64 2
  %39 = load i16, ptr %38, align 2, !tbaa !73
  %40 = getelementptr inbounds nuw %struct.b3BvhSubtreeInfoData, ptr %5, i32 0, i32 1
  %41 = getelementptr inbounds [3 x i16], ptr %40, i64 0, i64 2
  store i16 %39, ptr %41, align 2, !tbaa !73
  ret void
}

; Function Attrs: inlinehint mustprogress nounwind uwtable
define linkonce_odr dso_local noundef nonnull align 16 dereferenceable(16) ptr @_ZN20b3AlignedObjectArrayI18b3QuantizedBvhNodeEixEi(ptr noundef nonnull align 8 dereferenceable(25) %0, i32 noundef %1) #4 comdat align 2 {
  %3 = alloca ptr, align 8
  %4 = alloca i32, align 4
  store ptr %0, ptr %3, align 8, !tbaa !43
  store i32 %1, ptr %4, align 4, !tbaa !34
  %5 = load ptr, ptr %3, align 8
  %6 = getelementptr inbounds nuw %class.b3AlignedObjectArray.0, ptr %5, i32 0, i32 4
  %7 = load ptr, ptr %6, align 8, !tbaa !54
  %8 = load i32, ptr %4, align 4, !tbaa !34
  %9 = sext i32 %8 to i64
  %10 = getelementptr inbounds %struct.b3QuantizedBvhNode, ptr %7, i64 %9
  ret ptr %10
}

; Function Attrs: inlinehint mustprogress nounwind uwtable
define linkonce_odr dso_local noundef nonnull align 16 dereferenceable(32) ptr @_ZN20b3AlignedObjectArrayI16b3BvhSubtreeInfoEixEi(ptr noundef nonnull align 8 dereferenceable(25) %0, i32 noundef %1) #4 comdat align 2 {
  %3 = alloca ptr, align 8
  %4 = alloca i32, align 4
  store ptr %0, ptr %3, align 8, !tbaa !69
  store i32 %1, ptr %4, align 4, !tbaa !34
  %5 = load ptr, ptr %3, align 8
  %6 = getelementptr inbounds nuw %class.b3AlignedObjectArray.2, ptr %5, i32 0, i32 4
  %7 = load ptr, ptr %6, align 8, !tbaa !72
  %8 = load i32, ptr %4, align 4, !tbaa !34
  %9 = sext i32 %8 to i64
  %10 = getelementptr inbounds %class.b3BvhSubtreeInfo, ptr %7, i64 %9
  ret ptr %10
}

; Function Attrs: inlinehint mustprogress nounwind uwtable
define linkonce_odr dso_local noundef i32 @_ZNK20b3AlignedObjectArrayI16b3BvhSubtreeInfoE4sizeEv(ptr noundef nonnull align 8 dereferenceable(25) %0) #4 comdat align 2 {
  %2 = alloca ptr, align 8
  store ptr %0, ptr %2, align 8, !tbaa !69
  %3 = load ptr, ptr %2, align 8
  %4 = getelementptr inbounds nuw %class.b3AlignedObjectArray.2, ptr %3, i32 0, i32 1
  %5 = load i32, ptr %4, align 4, !tbaa !71
  ret i32 %5
}

; Function Attrs: mustprogress uwtable
define dso_local void @_ZN14b3OptimizedBvh5refitEP23b3StridingMeshInterfaceRK9b3Vector3S4_(ptr noundef nonnull align 16 dereferenceable(252) %0, ptr noundef %1, ptr noundef nonnull align 16 dereferenceable(16) %2, ptr noundef nonnull align 16 dereferenceable(16) %3) #0 align 2 {
  %5 = alloca ptr, align 8
  %6 = alloca ptr, align 8
  %7 = alloca ptr, align 8
  %8 = alloca ptr, align 8
  %9 = alloca i32, align 4
  %10 = alloca ptr, align 8
  store ptr %0, ptr %5, align 8, !tbaa !4
  store ptr %1, ptr %6, align 8, !tbaa !12
  store ptr %2, ptr %7, align 8, !tbaa !16
  store ptr %3, ptr %8, align 8, !tbaa !16
  %11 = load ptr, ptr %5, align 8
  %12 = getelementptr inbounds nuw %class.b3QuantizedBvh, ptr %11, i32 0, i32 7
  %13 = load i8, ptr %12, align 8, !tbaa !20, !range !18, !noundef !19
  %14 = trunc i8 %13 to i1
  br i1 %14, label %15, label %40

15:                                               ; preds = %4
  %16 = load ptr, ptr %7, align 8, !tbaa !16
  %17 = load ptr, ptr %8, align 8, !tbaa !16
  call void @_ZN14b3QuantizedBvh21setQuantizationValuesERK9b3Vector3S2_f(ptr noundef nonnull align 16 dereferenceable(252) %11, ptr noundef nonnull align 16 dereferenceable(16) %16, ptr noundef nonnull align 16 dereferenceable(16) %17, float noundef 1.000000e+00)
  %18 = load ptr, ptr %6, align 8, !tbaa !12
  %19 = getelementptr inbounds nuw %class.b3QuantizedBvh, ptr %11, i32 0, i32 6
  %20 = load i32, ptr %19, align 4, !tbaa !35
  call void @_ZN14b3OptimizedBvh14updateBvhNodesEP23b3StridingMeshInterfaceiii(ptr noundef nonnull align 16 dereferenceable(252) %11, ptr noundef %18, i32 noundef 0, i32 noundef %20, i32 noundef 0)
  call void @llvm.lifetime.start.p0(i64 4, ptr %9) #13
  store i32 0, ptr %9, align 4, !tbaa !34
  br label %21

21:                                               ; preds = %36, %15
  %22 = load i32, ptr %9, align 4, !tbaa !34
  %23 = getelementptr inbounds nuw %class.b3QuantizedBvh, ptr %11, i32 0, i32 15
  %24 = call noundef i32 @_ZNK20b3AlignedObjectArrayI16b3BvhSubtreeInfoE4sizeEv(ptr noundef nonnull align 8 dereferenceable(25) %23)
  %25 = icmp slt i32 %22, %24
  br i1 %25, label %26, label %39

26:                                               ; preds = %21
  call void @llvm.lifetime.start.p0(i64 8, ptr %10) #13
  %27 = getelementptr inbounds nuw %class.b3QuantizedBvh, ptr %11, i32 0, i32 15
  %28 = load i32, ptr %9, align 4, !tbaa !34
  %29 = call noundef nonnull align 16 dereferenceable(32) ptr @_ZN20b3AlignedObjectArrayI16b3BvhSubtreeInfoEixEi(ptr noundef nonnull align 8 dereferenceable(25) %27, i32 noundef %28)
  store ptr %29, ptr %10, align 8, !tbaa !36
  %30 = load ptr, ptr %10, align 8, !tbaa !36
  %31 = getelementptr inbounds nuw %class.b3QuantizedBvh, ptr %11, i32 0, i32 12
  %32 = load ptr, ptr %10, align 8, !tbaa !36
  %33 = getelementptr inbounds nuw %struct.b3BvhSubtreeInfoData, ptr %32, i32 0, i32 2
  %34 = load i32, ptr %33, align 4, !tbaa !37
  %35 = call noundef nonnull align 16 dereferenceable(16) ptr @_ZN20b3AlignedObjectArrayI18b3QuantizedBvhNodeEixEi(ptr noundef nonnull align 8 dereferenceable(25) %31, i32 noundef %34)
  call void @_ZN16b3BvhSubtreeInfo23setAabbFromQuantizeNodeERK18b3QuantizedBvhNode(ptr noundef nonnull align 16 dereferenceable(32) %30, ptr noundef nonnull align 16 dereferenceable(16) %35)
  call void @llvm.lifetime.end.p0(i64 8, ptr %10) #13
  br label %36

36:                                               ; preds = %26
  %37 = load i32, ptr %9, align 4, !tbaa !34
  %38 = add nsw i32 %37, 1
  store i32 %38, ptr %9, align 4, !tbaa !34
  br label %21, !llvm.loop !77

39:                                               ; preds = %21
  call void @llvm.lifetime.end.p0(i64 4, ptr %9) #13
  br label %41

40:                                               ; preds = %4
  br label %41

41:                                               ; preds = %40, %39
  ret void
}