; Function Attrs: mustprogress uwtable
define dso_local void @_ZN14b3OptimizedBvh5refitEP23b3StridingMeshInterfaceRK9b3Vector3S4_(ptr noundef nonnull align 16 dereferenceable(252) %0, ptr noundef %1, ptr noundef nonnull align 16 dereferenceable(16) %2, ptr noundef nonnull align 16 dereferenceable(16) %3) local_unnamed_addr #0 align 2 {
  %5 = getelementptr inbounds nuw i8, ptr %0, i64 72
  %6 = load i8, ptr %5, align 8, !tbaa !7, !range !36, !noundef !37
  %7 = trunc nuw i8 %6 to i1
  br i1 %7, label %8, label %.loopexit

8:                                                ; preds = %4
  tail call void @_ZN14b3QuantizedBvh21setQuantizationValuesERK9b3Vector3S2_f(ptr noundef nonnull align 16 dereferenceable(252) %0, ptr noundef nonnull align 16 dereferenceable(16) %2, ptr noundef nonnull align 16 dereferenceable(16) %3, float noundef 1.000000e+00)
  %9 = getelementptr inbounds nuw i8, ptr %0, i64 68
  %10 = load i32, ptr %9, align 4, !tbaa !50
  tail call void @_ZN14b3OptimizedBvh14updateBvhNodesEP23b3StridingMeshInterfaceiii(ptr noundef nonnull align 16 dereferenceable(252) %0, ptr noundef %1, i32 noundef 0, i32 noundef %10, i32 poison)
  %11 = getelementptr inbounds nuw i8, ptr %0, i64 220
  %12 = load i32, ptr %11, align 4, !tbaa !58
  %13 = icmp sgt i32 %12, 0
  br i1 %13, label %.lr.ph, label %.loopexit

.lr.ph:                                           ; preds = %8
  %14 = getelementptr inbounds nuw i8, ptr %0, i64 232
  %15 = load ptr, ptr %14, align 8, !tbaa !61
  %16 = getelementptr inbounds nuw i8, ptr %0, i64 192
  %17 = load ptr, ptr %16, align 16, !tbaa !32
  %wide.trip.count = zext nneg i32 %12 to i64
  br label %18

18:                                               ; preds = %.lr.ph, %18
  %indvars.iv = phi i64 [ 0, %.lr.ph ], [ %indvars.iv.next, %18 ]
  %19 = getelementptr inbounds nuw %class.b3BvhSubtreeInfo, ptr %15, i64 %indvars.iv
  %20 = getelementptr inbounds nuw i8, ptr %19, i64 12
  %21 = load i32, ptr %20, align 4, !tbaa !53
  %22 = sext i32 %21 to i64
  %23 = getelementptr inbounds %struct.b3QuantizedBvhNode, ptr %17, i64 %22
  %24 = load i16, ptr %23, align 16, !tbaa !51
  store i16 %24, ptr %19, align 16, !tbaa !51
  %25 = getelementptr inbounds nuw i8, ptr %23, i64 2
  %26 = load i16, ptr %25, align 2, !tbaa !51
  %27 = getelementptr inbounds nuw i8, ptr %19, i64 2
  store i16 %26, ptr %27, align 2, !tbaa !51
  %28 = getelementptr inbounds nuw i8, ptr %23, i64 4
  %29 = load i16, ptr %28, align 4, !tbaa !51
  %30 = getelementptr inbounds nuw i8, ptr %19, i64 4
  store i16 %29, ptr %30, align 4, !tbaa !51
  %31 = getelementptr inbounds nuw i8, ptr %23, i64 6
  %32 = load i16, ptr %31, align 2, !tbaa !51
  %33 = getelementptr inbounds nuw i8, ptr %19, i64 6
  store i16 %32, ptr %33, align 2, !tbaa !51
  %34 = getelementptr inbounds nuw i8, ptr %23, i64 8
  %35 = load i16, ptr %34, align 2, !tbaa !51
  %36 = getelementptr inbounds nuw i8, ptr %19, i64 8
  store i16 %35, ptr %36, align 2, !tbaa !51
  %37 = getelementptr inbounds nuw i8, ptr %23, i64 10
  %38 = load i16, ptr %37, align 2, !tbaa !51
  %39 = getelementptr inbounds nuw i8, ptr %19, i64 10
  store i16 %38, ptr %39, align 2, !tbaa !51
  %indvars.iv.next = add nuw nsw i64 %indvars.iv, 1
  %exitcond.not = icmp eq i64 %indvars.iv.next, %wide.trip.count
  br i1 %exitcond.not, label %.loopexit, label %18, !llvm.loop !64

.loopexit:                                        ; preds = %18, %8, %4
  ret void
}